; Function Attrs: null_pointer_is_valid sspstrong uwtable
define internal noundef zeroext i1 @logcat_read(ptr noundef readonly captures(none) %0, ptr noundef %1, ptr noundef %2, ptr noundef %3, ptr noundef writeonly captures(none) initializes((0, 8)) %4) #2 {
  %6 = load ptr, ptr %0, align 8
  %7 = tail call i64 @file_tell(ptr noundef %6)
  store i64 %7, ptr %4, align 8
  %8 = getelementptr inbounds nuw i8, ptr %0, i64 96
  %9 = load ptr, ptr %8, align 8
  %10 = load ptr, ptr %0, align 8
  %11 = tail call fastcc zeroext i1 @logcat_read_packet(ptr noundef %9, ptr noundef %10, ptr noundef %1, ptr noundef %2, ptr noundef %3)
  ret i1 %11
}